target datalayout = "e-m:e-p270:32:32-p271:32:32-p272:64:64-i64:64-i128:128-f80:128-n8:16:32:64-S128"
target triple = "x86_64-pc-linux-gnu"

%"class.icu_77::MaybeStackArray" = type <{ ptr, i32, i8, [40 x i8], [3 x i8] }>
%"class.icu_77::CharString" = type { %"class.icu_77::MaybeStackArray", i32, [4 x i8] }

; Function Attrs: mustprogress uwtable
define noundef nonnull align 8 dereferenceable(60) ptr @_ZN6icu_7710CharString6appendEcR10UErrorCode(ptr noundef nonnull align 8 dereferenceable(60) %0, i8 noundef signext %1, ptr noundef nonnull align 4 dereferenceable(4) %2) #1 align 2 {
  %4 = alloca ptr, align 8
  %5 = alloca i8, align 1
  %6 = alloca ptr, align 8
  store ptr %0, ptr %4, align 8, !tbaa !23
  store i8 %1, ptr %5, align 1, !tbaa !27
  store ptr %2, ptr %6, align 8, !tbaa !22
  %7 = load ptr, ptr %4, align 8
  %8 = getelementptr inbounds nuw %"class.icu_77::CharString", ptr %7, i32 0, i32 1
  %9 = load i32, ptr %8, align 8, !tbaa !25
  %10 = add nsw i32 %9, 2
  %11 = load ptr, ptr %6, align 8, !tbaa !22
  %12 = call noundef signext i8 @_ZN6icu_7710CharString14ensureCapacityEiiR10UErrorCode(ptr noundef nonnull align 8 dereferenceable(60) %7, i32 noundef %10, i32 noundef 0, ptr noundef nonnull align 4 dereferenceable(4) %11)
  %13 = icmp ne i8 %12, 0
  br i1 %13, label %14, label %27

14:                                               ; preds = %3
  %15 = load i8, ptr %5, align 1, !tbaa !27
  %16 = getelementptr inbounds nuw %"class.icu_77::CharString", ptr %7, i32 0, i32 0
  %17 = getelementptr inbounds nuw %"class.icu_77::CharString", ptr %7, i32 0, i32 1
  %18 = load i32, ptr %17, align 8, !tbaa !25
  %19 = add nsw i32 %18, 1
  store i32 %19, ptr %17, align 8, !tbaa !25
  %20 = sext i32 %18 to i64
  %21 = call noundef nonnull align 1 dereferenceable(1) ptr @_ZN6icu_7715MaybeStackArrayIcLi40EEixEl(ptr noundef nonnull align 8 dereferenceable(53) %16, i64 noundef %20)
  store i8 %15, ptr %21, align 1, !tbaa !27
  %22 = getelementptr inbounds nuw %"class.icu_77::CharString", ptr %7, i32 0, i32 0
  %23 = getelementptr inbounds nuw %"class.icu_77::CharString", ptr %7, i32 0, i32 1
  %24 = load i32, ptr %23, align 8, !tbaa !25
  %25 = sext i32 %24 to i64
  %26 = call noundef nonnull align 1 dereferenceable(1) ptr @_ZN6icu_7715MaybeStackArrayIcLi40EEixEl(ptr noundef nonnull align 8 dereferenceable(53) %22, i64 noundef %25)
  store i8 0, ptr %26, align 1, !tbaa !27
  br label %27

27:                                               ; preds = %14, %3
  ret ptr %7
}

; Function Attrs: mustprogress nounwind uwtable
define noundef signext i8 @_ZNK6icu_7710CharString13getDirSepCharEv(ptr noundef nonnull align 8 dereferenceable(60) %0) #0 align 2 {
  %2 = alloca ptr, align 8
  %3 = alloca i8, align 1
  store ptr %0, ptr %2, align 8, !tbaa !23
  call void @llvm.lifetime.start.p0(i64 1, ptr %3) #11
  store i8 47, ptr %3, align 1, !tbaa !27
  %4 = load i8, ptr %3, align 1, !tbaa !27
  call void @llvm.lifetime.end.p0(i64 1, ptr %3) #11
  ret i8 %4
}

; Function Attrs: mustprogress nounwind uwtable
define weak_odr noundef nonnull align 1 dereferenceable(1) ptr @_ZN6icu_7715MaybeStackArrayIcLi40EEixEl(ptr noundef nonnull align 8 dereferenceable(53) %0, i64 noundef %1) #0 comdat align 2 {
  %3 = alloca ptr, align 8
  %4 = alloca i64, align 8
  store ptr %0, ptr %3, align 8, !tbaa !3
  store i64 %1, ptr %4, align 8, !tbaa !18
  %5 = load ptr, ptr %3, align 8
  %6 = getelementptr inbounds nuw %"class.icu_77::MaybeStackArray", ptr %5, i32 0, i32 0
  %7 = load ptr, ptr %6, align 8, !tbaa !8
  %8 = load i64, ptr %4, align 8, !tbaa !18
  %9 = getelementptr inbounds i8, ptr %7, i64 %8
  ret ptr %9
}

; Function Attrs: inlinehint mustprogress nounwind uwtable
define internal noundef signext i8 @_ZL9U_SUCCESS10UErrorCode(i32 noundef %0) #2 {
  %2 = alloca i32, align 4
  store i32 %0, ptr %2, align 4, !tbaa !15
  %3 = load i32, ptr %2, align 4, !tbaa !15
  %4 = icmp sle i32 %3, 0
  %5 = zext i1 %4 to i8
  ret i8 %5
}

; Function Attrs: mustprogress uwtable
define noundef nonnull align 8 dereferenceable(60) ptr @_ZN6icu_7710CharString27ensureEndsWithFileSeparatorER10UErrorCode(ptr noundef nonnull align 8 dereferenceable(60) %0, ptr noundef nonnull align 4 dereferenceable(4) %1) #1 align 2 {
  %3 = alloca ptr, align 8
  %4 = alloca ptr, align 8
  %5 = alloca i8, align 1
  store ptr %0, ptr %3, align 8, !tbaa !23
  store ptr %1, ptr %4, align 8, !tbaa !22
  %6 = load ptr, ptr %3, align 8
  call void @llvm.lifetime.start.p0(i64 1, ptr %5) #11
  %7 = load ptr, ptr %4, align 8, !tbaa !22
  %8 = load i32, ptr %7, align 4, !tbaa !15
  %9 = call noundef signext i8 @_ZL9U_SUCCESS10UErrorCode(i32 noundef %8)
  %10 = icmp ne i8 %9, 0
  br i1 %10, label %11, label %33

11:                                               ; preds = %2
  %12 = getelementptr inbounds nuw %"class.icu_77::CharString", ptr %6, i32 0, i32 1
  %13 = load i32, ptr %12, align 8, !tbaa !25
  %14 = icmp sgt i32 %13, 0
  br i1 %14, label %15, label %33

15:                                               ; preds = %11
  %16 = getelementptr inbounds nuw %"class.icu_77::CharString", ptr %6, i32 0, i32 0
  %17 = getelementptr inbounds nuw %"class.icu_77::CharString", ptr %6, i32 0, i32 1
  %18 = load i32, ptr %17, align 8, !tbaa !25
  %19 = sub nsw i32 %18, 1
  %20 = sext i32 %19 to i64
  %21 = call noundef nonnull align 1 dereferenceable(1) ptr @_ZN6icu_7715MaybeStackArrayIcLi40EEixEl(ptr noundef nonnull align 8 dereferenceable(53) %16, i64 noundef %20)
  %22 = load i8, ptr %21, align 1, !tbaa !27
  store i8 %22, ptr %5, align 1, !tbaa !27
  %23 = sext i8 %22 to i32
  %24 = icmp ne i32 %23, 47
  br i1 %24, label %25, label %33

25:                                               ; preds = %15
  %26 = load i8, ptr %5, align 1, !tbaa !27
  %27 = sext i8 %26 to i32
  %28 = icmp ne i32 %27, 47
  br i1 %28, label %29, label %33

29:                                               ; preds = %25
  %30 = call noundef signext i8 @_ZNK6icu_7710CharString13getDirSepCharEv(ptr noundef nonnull align 8 dereferenceable(60) %6)
  %31 = load ptr, ptr %4, align 8, !tbaa !22
  %32 = call noundef nonnull align 8 dereferenceable(60) ptr @_ZN6icu_7710CharString6appendEcR10UErrorCode(ptr noundef nonnull align 8 dereferenceable(60) %6, i8 noundef signext %30, ptr noundef nonnull align 4 dereferenceable(4) %31)
  br label %33

33:                                               ; preds = %29, %25, %15, %11, %2
  call void @llvm.lifetime.end.p0(i64 1, ptr %5) #11
  ret ptr %6
}