; Function Attrs: mustprogress uwtable
define noundef nonnull align 8 dereferenceable(60) ptr @_ZN6icu_7710CharString27ensureEndsWithFileSeparatorER10UErrorCode(ptr noundef nonnull returned align 8 dereferenceable(60) %0, ptr noundef nonnull align 4 captures(none) dereferenceable(4) %1) local_unnamed_addr #1 align 2 {
  %3 = load i32, ptr %1, align 4, !tbaa !13
  %4 = icmp sgt i32 %3, 0
  br i1 %4, label %_ZN6icu_7710CharString6appendEcR10UErrorCode.exit, label %5

5:                                                ; preds = %2
  %6 = getelementptr inbounds nuw i8, ptr %0, i64 56
  %7 = load i32, ptr %6, align 8, !tbaa !15
  %8 = icmp sgt i32 %7, 0
  br i1 %8, label %9, label %_ZN6icu_7710CharString6appendEcR10UErrorCode.exit

9:                                                ; preds = %5
  %10 = load ptr, ptr %0, align 8, !tbaa !3
  %11 = zext nneg i32 %7 to i64
  %12 = getelementptr i8, ptr %10, i64 %11
  %13 = getelementptr i8, ptr %12, i64 -1
  %14 = load i8, ptr %13, align 1, !tbaa !17
  %.not5 = icmp eq i8 %14, 47
  br i1 %.not5, label %_ZN6icu_7710CharString6appendEcR10UErrorCode.exit, label %15

15:                                               ; preds = %9
  %16 = add nuw nsw i32 %7, 2
  %17 = tail call noundef signext i8 @_ZN6icu_7710CharString14ensureCapacityEiiR10UErrorCode(ptr noundef nonnull align 8 dereferenceable(60) %0, i32 noundef %16, i32 noundef 0, ptr noundef nonnull align 4 dereferenceable(4) %1)
  %.not.i = icmp eq i8 %17, 0
  br i1 %.not.i, label %_ZN6icu_7710CharString6appendEcR10UErrorCode.exit, label %18

18:                                               ; preds = %15
  %19 = load i32, ptr %6, align 8, !tbaa !15
  %20 = add nsw i32 %19, 1
  store i32 %20, ptr %6, align 8, !tbaa !15
  %21 = sext i32 %19 to i64
  %22 = load ptr, ptr %0, align 8, !tbaa !3
  %23 = getelementptr inbounds i8, ptr %22, i64 %21
  store i8 47, ptr %23, align 1, !tbaa !17
  %24 = load i32, ptr %6, align 8, !tbaa !15
  %25 = sext i32 %24 to i64
  %26 = load ptr, ptr %0, align 8, !tbaa !3
  %27 = getelementptr inbounds i8, ptr %26, i64 %25
  store i8 0, ptr %27, align 1, !tbaa !17
  br label %_ZN6icu_7710CharString6appendEcR10UErrorCode.exit

_ZN6icu_7710CharString6appendEcR10UErrorCode.exit: ; preds = %18, %15, %9, %5, %2
  ret ptr %0
}